; Function Attrs: nounwind uwtable
define i64 @f64_rsqrte7(i64 %0) local_unnamed_addr #0 {
  %2 = tail call i64 @f64_classify(i64 %0) #3
  %3 = trunc i64 %2 to i32
  switch i32 %3, label %17 [
    i32 1, label %4
    i32 2, label %4
    i32 4, label %4
    i32 256, label %4
    i32 512, label %45
    i32 8, label %8
    i32 16, label %12
    i32 128, label %16
    i32 32, label %.preheader.i
  ]

4:                                                ; preds = %1, %1, %1, %1
  %5 = tail call align 1 ptr @llvm.threadlocal.address.p0(ptr align 1 @softfloat_exceptionFlags)
  %6 = load i8, ptr %5, align 1, !tbaa !3
  %7 = or i8 %6, 16
  store i8 %7, ptr %5, align 1, !tbaa !3
  br label %45

8:                                                ; preds = %1
  %9 = tail call align 1 ptr @llvm.threadlocal.address.p0(ptr align 1 @softfloat_exceptionFlags)
  %10 = load i8, ptr %9, align 1, !tbaa !3
  %11 = or i8 %10, 8
  store i8 %11, ptr %9, align 1, !tbaa !3
  br label %45

12:                                               ; preds = %1
  %13 = tail call align 1 ptr @llvm.threadlocal.address.p0(ptr align 1 @softfloat_exceptionFlags)
  %14 = load i8, ptr %13, align 1, !tbaa !3
  %15 = or i8 %14, 8
  store i8 %15, ptr %13, align 1, !tbaa !3
  br label %45

16:                                               ; preds = %1
  br label %45

17:                                               ; preds = %1
  %18 = lshr i64 %0, 52
  %19 = and i64 %18, 2047
  %20 = and i64 %0, 4503599627370495
  br label %rsqrte7.exit

.preheader.i:                                     ; preds = %1
  %21 = lshr i64 %0, 52
  %22 = and i64 %21, 2047
  %23 = and i64 %0, 2251799813685248
  %24 = icmp eq i64 %23, 0
  br i1 %24, label %.lr.ph.i, label %._crit_edge.i

.lr.ph.i:                                         ; preds = %.preheader.i, %.lr.ph.i
  %.131.i = phi i64 [ %25, %.lr.ph.i ], [ %22, %.preheader.i ]
  %.12930.i = phi i64 [ %26, %.lr.ph.i ], [ %0, %.preheader.i ]
  %25 = add i64 %.131.i, -1
  %26 = shl i64 %.12930.i, 1
  %27 = and i64 %.12930.i, 1125899906842624
  %28 = icmp eq i64 %27, 0
  br i1 %28, label %.lr.ph.i, label %._crit_edge.i, !llvm.loop !6

._crit_edge.i:                                    ; preds = %.lr.ph.i, %.preheader.i
  %.129.lcssa.i = phi i64 [ %0, %.preheader.i ], [ %26, %.lr.ph.i ]
  %.1.lcssa.i = phi i64 [ %22, %.preheader.i ], [ %25, %.lr.ph.i ]
  %29 = shl i64 %.129.lcssa.i, 1
  %30 = and i64 %29, 4503599627370494
  br label %rsqrte7.exit

rsqrte7.exit:                                     ; preds = %17, %._crit_edge.i
  %.028.i = phi i64 [ %30, %._crit_edge.i ], [ %20, %17 ]
  %.0.i = phi i64 [ %.1.lcssa.i, %._crit_edge.i ], [ %19, %17 ]
  %31 = and i64 %0, -9223372036854775808
  %32 = shl i64 %.0.i, 6
  %33 = and i64 %32, 64
  %34 = lshr i64 %.028.i, 46
  %35 = or disjoint i64 %33, %34
  %36 = getelementptr inbounds nuw [128 x i8], ptr @rsqrte7.table, i64 0, i64 %35
  %37 = load i8, ptr %36, align 1, !tbaa !3
  %38 = zext i8 %37 to i64
  %39 = shl nuw nsw i64 %38, 45
  %40 = shl i64 %.0.i, 51
  %41 = sub i64 6908521828386340864, %40
  %42 = and i64 %41, -4503599627370496
  %43 = or i64 %42, %31
  %44 = or i64 %43, %39
  br label %45

45:                                               ; preds = %1, %4, %rsqrte7.exit, %16, %12, %8
  %.sroa.0.0 = phi i64 [ %44, %rsqrte7.exit ], [ 0, %16 ], [ 9218868437227405312, %12 ], [ -4503599627370496, %8 ], [ 9221120237041090560, %4 ], [ 9221120237041090560, %1 ]
  ret i64 %.sroa.0.0
}